 MiniVisorDxe

 Timestamp is 64c44012 (Fri Jul 28 22:24:18 2023)

 Preferred load address is 0000000000000000

 Start         Length     Name                   Class
 0001:00000000 00000170H .text                   CODE
 0001:00000170 000065f7H .text$mn                CODE
 0002:00000000 00000050H .data                   DATA
 0002:00000050 00002fb0H .rdata                  DATA
 0002:00003000 00207080H .bss                    DATA
 0002:0020a080 000000ecH .rdata$voltmd           DATA
 0002:0020a16c 00000158H .rdata$zzzdbg           DATA
 0003:00000000 000002a0H .pdata                  DATA
 0004:00000000 0000024cH .xdata                  DATA

  Address         Publics by Value              Rva+Base               Lib:Object

 0000:00000000       __AbsoluteZero             0000000000000000     <absolute>
 0000:00000000       __arm64x_extra_rfe_table   0000000000000000     <absolute>
 0000:00000000       __arm64x_extra_rfe_table_size 0000000000000000     <absolute>
 0000:00000000       __arm64x_native_entrypoint 0000000000000000     <absolute>
 0000:00000000       __arm64x_redirection_metadata 0000000000000000     <absolute>
 0000:00000000       __arm64x_redirection_metadata_count 0000000000000000     <absolute>
 0000:00000000       __dynamic_value_reloc_table 0000000000000000     <absolute>
 0000:00000000       __enclave_config           0000000000000000     <absolute>
 0000:00000000       __guard_check_icall_a64n_fptr 0000000000000000     <absolute>
 0000:00000000       __guard_eh_cont_count      0000000000000000     <absolute>
 0000:00000000       __guard_eh_cont_table      0000000000000000     <absolute>
 0000:00000000       __guard_fids_count         0000000000000000     <absolute>
 0000:00000000       __guard_fids_table         0000000000000000     <absolute>
 0000:00000000       __guard_flags              0000000000000000     <absolute>
 0000:00000000       __guard_iat_count          0000000000000000     <absolute>
 0000:00000000       __guard_iat_table          0000000000000000     <absolute>
 0000:00000000       __guard_longjmp_count      0000000000000000     <absolute>
 0000:00000000       __guard_longjmp_table      0000000000000000     <absolute>
 0000:00000000       __hybrid_auxiliary_iat     0000000000000000     <absolute>
 0000:00000000       __hybrid_auxiliary_iat_copy 0000000000000000     <absolute>
 0000:00000000       __hybrid_code_map          0000000000000000     <absolute>
 0000:00000000       __hybrid_code_map_count    0000000000000000     <absolute>
 0000:00000000       __x64_code_ranges_to_entry_points 0000000000000000     <absolute>
 0000:00000000       __x64_code_ranges_to_entry_points_count 0000000000000000     <absolute>
 0000:00000000       __ImageBase                0000000000000000     <linker-defined>
 0001:00000000       InternalMemZeroMem         0000000000001000     BaseMemoryLibOptDxe:ZeroMem.obj
 0001:00000020       InternalMemCopyMem         0000000000001020     BaseMemoryLibOptDxe:CopyMem.obj
 0001:000000a0       AsmReadDs                  00000000000010a0     BaseLib:ReadDs.obj
 0001:000000b0       AsmReadFs                  00000000000010b0     BaseLib:ReadFs.obj
 0001:000000c0       AsmReadGs                  00000000000010c0     BaseLib:ReadGs.obj
 0001:000000d0       AsmReadSs                  00000000000010d0     BaseLib:ReadSs.obj
 0001:000000e0       AsmReadTr                  00000000000010e0     BaseLib:ReadTr.obj
 0001:000000f0       AsmReadEs                  00000000000010f0     BaseLib:ReadEs.obj
 0001:00000100       AsmReadLdtr                0000000000001100     BaseLib:ReadLdtr.obj
 0001:00000110       AsmReadCs                  0000000000001110     BaseLib:ReadCs.obj
 0001:00000120       AsmWriteTr                 0000000000001120     BaseLib:WriteTr.obj
 0001:00000130       CpuPause                   0000000000001130     BaseLib:CpuPause.obj
 0001:00000140       AsmCpuid                   0000000000001140     BaseLib:CpuId.obj
 0001:00000170       _DriverUnloadHandler       0000000000001170 f   UefiDriverEntryPoint:DriverEntryPoint.obj
 0001:000001d8       _ModuleEntryPoint          00000000000011d8 f   UefiDriverEntryPoint:DriverEntryPoint.obj
 0001:00000394       GetActiveProcessorCount    0000000000001394 f   MiniVisorDxe:EfiPlatform.obj
 0001:000003f8       GetCurrentProcessorNumber  00000000000013f8 f   MiniVisorDxe:EfiPlatform.obj
 0001:00000454       AllocateSystemMemory       0000000000001454 f   MiniVisorDxe:EfiPlatform.obj
 0001:00000494       RunOnAllProcessors         0000000000001494 f   MiniVisorDxe:EfiPlatform.obj
 0001:0000051c       AcquireSystemSpinLock      000000000000151c f   MiniVisorDxe:EfiPlatform.obj
 0001:000005ac       LogMessage                 00000000000015ac f   MiniVisorDxe:EfiLogger.obj
 0001:000014f0       InitializeMiniVisor        00000000000024f0 f   MiniVisorDxe:MiniVisor.obj
 0001:00001744       InitializeHostEnvironment  0000000000002744 f   MiniVisorDxe:EfiHostInitialization.obj
 0001:00001908       InitializeGdt              0000000000002908 f   MiniVisorDxe:EfiHostInitialization.obj
 0001:000019f8       GetSegmentAccessRight      00000000000029f8 f   MiniVisorDxe:Ia32Utils.obj
 0001:00001a20       GetSegmentBase             0000000000002a20 f   MiniVisorDxe:Ia32Utils.obj
 0001:00001a88       IsHypervisorPresent        0000000000002a88 f   MiniVisorDxe:Ia32Utils.obj
 0001:00001b24       MmInitializeMemoryManager  0000000000002b24 f   MiniVisorDxe:MemoryManager.obj
 0001:00001c34       MmCleanupMemoryManager     0000000000002c34 f   MiniVisorDxe:MemoryManager.obj
 0001:00001cd0       MmAllocatePages            0000000000002cd0 f   MiniVisorDxe:MemoryManager.obj
 0001:00001d70       MmFreePages                0000000000002d70 f   MiniVisorDxe:MemoryManager.obj
 0001:00001fdc       GetPhysicalAddressForGuest 0000000000002fdc f   MiniVisorDxe:MemoryAccess.obj
 0001:000022d4       DumpHostState              00000000000032d4 f   MiniVisorDxe:HostUtils.obj
 0001:000025a8       DumpGuestState             00000000000035a8 f   MiniVisorDxe:HostUtils.obj
 0001:00002d48       DumpControl                0000000000003d48 f   MiniVisorDxe:HostUtils.obj
 0001:000033b8       VmxWrite                   00000000000043b8 f   MiniVisorDxe:HostUtils.obj
 0001:000033fc       VmxRead                    00000000000043fc f   MiniVisorDxe:HostUtils.obj
 0001:0000344c       AdvanceGuestInstructionPointer 000000000000444c f   MiniVisorDxe:HostUtils.obj
 0001:00003478       InjectInterruption         0000000000004478 f   MiniVisorDxe:HostUtils.obj
 0001:000034c4       AdjustGuestCr0             00000000000044c4 f   MiniVisorDxe:HostUtils.obj
 0001:00003528       SetNmiWindowExiting        0000000000004528 f   MiniVisorDxe:HostUtils.obj
 0001:00003808       InvalidateVpidDerivedCache 0000000000004808 f   MiniVisorDxe:ExtendedPageTables.obj
 0001:00003840       InitializeMemoryTypeMapping 0000000000004840 f   MiniVisorDxe:MemoryType.obj
 0001:00003afc       GetMemoryTypeForRange      0000000000004afc f   MiniVisorDxe:MemoryType.obj
 0001:0000460c       HandleVmExit               000000000000560c f   MiniVisorDxe:HostMain.obj
 0001:0000490c       HandleHostException        000000000000590c f   MiniVisorDxe:HostMain.obj
 0001:00004aa8       HandleVmExitFailure        0000000000005aa8 f   MiniVisorDxe:HostMain.obj
 0001:00004b1c       HandleVmcallUninstall      0000000000005b1c f   MiniVisorDxe:HostVmcall.obj
 0001:00004bf0       StrnLenS                   0000000000005bf0 f   BaseLib:SafeString.obj
 0001:00004c1c       InternalAllocatePages      0000000000005c1c f   UefiMemoryAllocationLib:MemoryAllocationLib.obj
 0001:00004c54       BasePrintLibFillBuffer     0000000000005c54 f   BasePrintLib:PrintLibInternal.obj
 0001:00004c88       BasePrintLibSPrintMarker   0000000000005c88 f   BasePrintLib:PrintLibInternal.obj
 0001:00005b30       BasePrintLibSPrint         0000000000006b30 f   BasePrintLib:PrintLibInternal.obj
 0001:00005b54       UefiDevicePathLibLocateProtocol 0000000000006b54 f   UefiDevicePathLibDevicePathProtocol:UefiDevicePathLib.obj
 0001:00005b90       AsmHypervisorEntryPoint    0000000000006b90 f   MiniVisorDxe:Asm.obj
 0001:00005c6d       AsmInvept                  0000000000006c6d f   MiniVisorDxe:Asm.obj
 0001:00005c8a       AsmInvvpid                 0000000000006c8a f   MiniVisorDxe:Asm.obj
 0001:00005ca7       AsmLoadAccessRightsByte    0000000000006ca7 f   MiniVisorDxe:Asm.obj
 0001:00005cb1       AsmVmxCall                 0000000000006cb1 f   MiniVisorDxe:Asm.obj
 0001:00005cb5       AsmGetCurrentInstructionPointer 0000000000006cb5 f   MiniVisorDxe:Asm.obj
 0001:00005cba       AsmGetCurrentStackPointer  0000000000006cba f   MiniVisorDxe:Asm.obj
 0001:00005cd0       AsmDefaultExceptionHandlers 0000000000006cd0 f   MiniVisorDxe:EfiAsm.obj
 0001:00006723       AsmCommonExceptionHandler  0000000000007723 f   MiniVisorDxe:EfiAsm.obj
 0002:00000000       gEfiLoadedImageProtocolGuid 0000000000008000     MiniVisorDxe:AutoGen.obj
 0002:00000010       gEfiMpServiceProtocolGuid  0000000000008010     MiniVisorDxe:AutoGen.obj
 0002:00000020       gEfiDevicePathToTextProtocolGuid 0000000000008020     MiniVisorDxe:AutoGen.obj
 0002:00000030       gEfiDevicePathUtilitiesProtocolGuid 0000000000008030     MiniVisorDxe:AutoGen.obj
 0002:00000040       gEfiEventExitBootServicesGuid 0000000000008040     MiniVisorDxe:AutoGen.obj
 0002:00000050       ??_C@_0BJ@ECHCNAFI@OpenProtocol?5failed?5?3?5?$CFr@ 0000000000008050     MiniVisorDxe:EfiPlatform.obj
 0002:00000070       ??_C@_0BM@JIJBOCOM@PrintLoadedImageInformation@ 0000000000008070     MiniVisorDxe:EfiPlatform.obj
 0002:00000090       ??_C@_0BP@PALLPKIK@ConvertDevicePathToText?5failed@ 0000000000008090     MiniVisorDxe:EfiPlatform.obj
 0002:000000b0       ??_C@_0P@IGOHGIIF@?$CFs?5?9?5?$CFllx?3?$CFllx@ 00000000000080b0     MiniVisorDxe:EfiPlatform.obj
 0002:000000c0       ??_C@_0BL@PFKOHBOE@LocateProtocol?5failed?5?3?5?$CFr@ 00000000000080c0     MiniVisorDxe:EfiPlatform.obj
 0002:000000e0       ??_C@_0BD@MEEEENDF@InitializePlatform@ 00000000000080e0     MiniVisorDxe:EfiPlatform.obj
 0002:000000f8       ??_C@_0CP@KLDLGBCK@Configure?5the?5system?5to?5be?5a?5si@ 00000000000080f8     MiniVisorDxe:EfiPlatform.obj
 0002:00000128       ??_C@_0DJ@LBICMFJD@MiniVisor?5will?5virtualize?5only?5@ 0000000000008128     MiniVisorDxe:EfiPlatform.obj
 0002:00000168       ??_C@_0DF@JNAHDDMB@This?5may?5result?5in?5operating?5sy@ 0000000000008168     MiniVisorDxe:EfiPlatform.obj
 0002:000001a0       ??_C@_0CC@FGEJBFBJ@GetNumberOfProcessors?5failed?5?3?5@ 00000000000081a0     MiniVisorDxe:EfiPlatform.obj
 0002:000001c8       ??_C@_0BI@DGHANAAJ@GetActiveProcessorCount@ 00000000000081c8     MiniVisorDxe:EfiPlatform.obj
 0002:000001e0       ??_C@_0BD@FPCLPFNN@WhoAmI?5failed?5?3?5?$CFr@ 00000000000081e0     MiniVisorDxe:EfiPlatform.obj
 0002:000001f8       ??_C@_0BK@DFNBACLA@GetCurrentProcessorNumber@ 00000000000081f8     MiniVisorDxe:EfiPlatform.obj
 0002:00000218       ??_C@_0BK@OOBCPFIC@StartupAllAPs?5failed?5?3?5?$CFr@ 0000000000008218     MiniVisorDxe:EfiPlatform.obj
 0002:00000238       ??_C@_0BD@PHPALDEJ@RunOnAllProcessors@ 0000000000008238     MiniVisorDxe:EfiPlatform.obj
 0002:000002a0       ??_C@_0DN@HPDIJPOO@ExitBootServices?5was?5called?4?5En@ 00000000000082a0     MiniVisorDxe:EfiLogger.obj
 0002:000002e0       ??_C@_0BI@DLIDIIOH@ExitBootServicesHandler@ 00000000000082e0     MiniVisorDxe:EfiLogger.obj
 0002:000002f8       ??_C@_0BK@ELAFBGAM@CreateEventEx?5failed?5?3?5?$CFr@ 00000000000082f8     MiniVisorDxe:EfiLogger.obj
 0002:00000318       ??_C@_0BF@IMAJPOBH@RegisterNotification@ 0000000000008318     MiniVisorDxe:EfiLogger.obj
 0002:00000330       ??_C@_0CC@IPCOBJIK@RegisterNotifications?5failed?5?3?5@ 0000000000008330     MiniVisorDxe:EfiLogger.obj
 0002:00000358       ??_C@_0BB@MAHIBCEP@InitializeLogger@ 0000000000008358     MiniVisorDxe:EfiLogger.obj
 0002:00000370       ??_C@_0DF@KLACPKPB@Not?5all?5the?5requested?5VM?5contro@ 0000000000008370     MiniVisorDxe:MiniVisor.obj
 0002:000003a8       ??_C@_0BD@CKKGAOIF@AdjustControlValue@ 00000000000083a8     MiniVisorDxe:MiniVisor.obj
 0002:000003c0       ??_C@_0CJ@HIAFEKNK@MSR?5?$CF08x?3?5Requested?5?$CF08x?0?5Effec@ 00000000000083c0     MiniVisorDxe:MiniVisor.obj
 0002:000003f0       ??_C@_0N@PEKGAGDD@MiniVisor?5?5?5@ 00000000000083f0     MiniVisorDxe:MiniVisor.obj
 0002:00000400       ??_C@_0BH@IOAGANPF@VT?9x?5is?5not?5available?4@ 0000000000008400     MiniVisorDxe:MiniVisor.obj
 0002:00000418       ??_C@_0P@LKHKEMEI@IsVmxAvailable@ 0000000000008418     MiniVisorDxe:MiniVisor.obj
 0002:00000428       ??_C@_0DI@HNEIPPIP@The?5write?9back?5type?5is?5not?5supp@ 0000000000008428     MiniVisorDxe:MiniVisor.obj
 0002:00000460       ??_C@_0DO@DFBECEGO@The?5lock?5bit?5is?5not?5set?0?5or?5VMX@ 0000000000008460     MiniVisorDxe:MiniVisor.obj
 0002:000004a0       ??_C@_0BP@KCDFELLN@EPT?5is?5not?5supported?5?3?5?$CF016llx@ 00000000000084a0     MiniVisorDxe:MiniVisor.obj
 0002:000004c0       ??_C@_0BH@LLBDNLG@IsVmxAvailable?5failed?4@ 00000000000084c0     MiniVisorDxe:MiniVisor.obj
 0002:000004d8       ??_C@_09PFFGEJPH@SetupVmcs@ 00000000000084d8     MiniVisorDxe:MiniVisor.obj
 0002:000004e8       ??_C@_0BA@NBDOJIDC@__vmx_on?5failed@ 00000000000084e8     MiniVisorDxe:MiniVisor.obj
 0002:000004f8       ??_C@_0CG@HKFGBIIK@__vmx_vmclear?5or?5__vmx_vmptrld?5@ 00000000000084f8     MiniVisorDxe:MiniVisor.obj
 0002:00000520       ??_C@_0CL@GFCJNPPF@InitializeExtendedPageTables?5fa@ 0000000000008520     MiniVisorDxe:MiniVisor.obj
 0002:00000550       ??_C@_0CF@HBHGHKCJ@InitializeMemoryAccess?5failed?5?3@ 0000000000008550     MiniVisorDxe:MiniVisor.obj
 0002:00000578       ??_C@_0BB@CPCMMICP@EnableHypervisor@ 0000000000008578     MiniVisorDxe:MiniVisor.obj
 0002:00000590       ??_C@_0BI@CNINGPLJ@SetupVmcs?5failed?5?3?5?$CF08x@ 0000000000008590     MiniVisorDxe:MiniVisor.obj
 0002:000005a8       ??_C@_0BL@JNPBGCHP@__vmx_vmlaunch?5failed?5?3?5?$CFu@ 00000000000085a8     MiniVisorDxe:MiniVisor.obj
 0002:000005c8       ??_C@_0DA@NLDJJCOM@EnableHypervisor?5on?5processor?5?$CF@ 00000000000085c8     MiniVisorDxe:MiniVisor.obj
 0002:000005f8       ??_C@_0CA@IJBFEDJM@EnableHypervisorOnAllProcessors@ 00000000000085f8     MiniVisorDxe:MiniVisor.obj
 0002:00000618       ??_C@_0CN@IHGNDBEA@EnableHypervisor?5on?5processor?5?$CF@ 0000000000008618     MiniVisorDxe:MiniVisor.obj
 0002:00000648       ??_C@_0BM@KHMHBGPO@MiniVisor?5already?5installed@ 0000000000008648     MiniVisorDxe:MiniVisor.obj
 0002:00000668       ??_C@_0BE@DMJCHKKJ@InitializeMiniVisor@ 0000000000008668     MiniVisorDxe:MiniVisor.obj
 0002:00000680       ??_C@_0BG@JPPELBGO@Installing?5MiniVisor?4@ 0000000000008680     MiniVisorDxe:MiniVisor.obj
 0002:00000698       ??_C@_0CI@BEGLONJF@MmInitializeMemoryManager?5faile@ 0000000000008698     MiniVisorDxe:MiniVisor.obj
 0002:000006c0       ??_C@_0CO@GHPCBIGP@EnableHypervisorOnAllProcessors@ 00000000000086c0     MiniVisorDxe:MiniVisor.obj
 0002:000006f0       ??_C@_0CC@HGLCODNB@MiniVisor?5installed?5successfull@ 00000000000086f0     MiniVisorDxe:MiniVisor.obj
 0002:00000718       ??_C@_0CE@FJFPFMK@MiniVisor?5uninstalled?5successfu@ 0000000000008718     MiniVisorDxe:MiniVisor.obj
 0002:00000740       ??_C@_0BB@FJCMOPCO@CleanupMiniVisor@ 0000000000008740     MiniVisorDxe:MiniVisor.obj
 0002:00000758       ??_C@_0CL@MAGPCEGI@Missing?5required?5misc?5feature?$CIs@ 0000000000008758     MiniVisorDxe:EfiHostInitialization.obj
 0002:00000788       ??_C@_0BB@NGHNMOBJ@IsVmxAvailableEx@ 0000000000008788     MiniVisorDxe:EfiHostInitialization.obj
 0002:000007a0       ??_C@_0DK@NPLOAFH@Missing?5required?5multi?5processo@ 00000000000087a0     MiniVisorDxe:EfiHostInitialization.obj
 0002:000007e0       ??_C@_0BP@IGIKFBJO@Memory?5allocation?5failed?5?3?5?$CFlu@ 00000000000087e0     MiniVisorDxe:MemoryManager.obj
 0002:00000800       ??_C@_0BA@OILEGNEB@MmAllocatePages@ 0000000000008800     MiniVisorDxe:MemoryManager.obj
 0002:00000810       ??_C@_0CI@EJJBOLLB@Host?5ES?5Selector?5?5?5?5?5?5?5?5?5?5?5?5?5?5?$DN@ 0000000000008810     MiniVisorDxe:HostUtils.obj
 0002:00000838       ??_C@_0O@ODLKJGGE@DumpHostState@ 0000000000008838     MiniVisorDxe:HostUtils.obj
 0002:00000848       ??_C@_0CI@IFEGJBMC@Host?5CS?5Selector?5?5?5?5?5?5?5?5?5?5?5?5?5?5?$DN@ 0000000000008848     MiniVisorDxe:HostUtils.obj
 0002:00000870       ??_C@_0CI@MKLMNFIJ@Host?5SS?5Selector?5?5?5?5?5?5?5?5?5?5?5?5?5?5?$DN@ 0000000000008870     MiniVisorDxe:HostUtils.obj
 0002:00000898       ??_C@_0CI@IGAPPMHJ@Host?5DS?5Selector?5?5?5?5?5?5?5?5?5?5?5?5?5?5?$DN@ 0000000000008898     MiniVisorDxe:HostUtils.obj
 0002:000008c0       ??_C@_0CI@MCECNFKI@Host?5FS?5Selector?5?5?5?5?5?5?5?5?5?5?5?5?5?5?$DN@ 00000000000088c0     MiniVisorDxe:HostUtils.obj
 0002:000008e8       ??_C@_0CI@NNMMCGA@Host?5GS?5Selector?5?5?5?5?5?5?5?5?5?5?5?5?5?5?$DN@ 00000000000088e8     MiniVisorDxe:HostUtils.obj
 0002:00000910       ??_C@_0CI@ONHHOJAE@Host?5TR?5Selector?5?5?5?5?5?5?5?5?5?5?5?5?5?5?$DN@ 0000000000008910     MiniVisorDxe:HostUtils.obj
 0002:00000938       ??_C@_0CI@IPHDJMBB@Host?5IA32_PAT?5?5?5?5?5?5?5?5?5?5?5?5?5?5?5?5?5?$DN@ 0000000000008938     MiniVisorDxe:HostUtils.obj
 0002:00000960       ??_C@_0CI@EHNGIKCD@Host?5IA32_EFER?5?5?5?5?5?5?5?5?5?5?5?5?5?5?5?5?$DN@ 0000000000008960     MiniVisorDxe:HostUtils.obj
 0002:00000988       ??_C@_0CI@NGJFCEML@Host?5IA32_PERF_GLOBAL_CTRL?5?5?5?5?$DN@ 0000000000008988     MiniVisorDxe:HostUtils.obj
 0002:000009b0       ??_C@_0CI@OLBLLAOO@Host?5IA32_SYSENTER_CS?5?5?5?5?5?5?5?5?5?$DN@ 00000000000089b0     MiniVisorDxe:HostUtils.obj
 0002:000009d8       ??_C@_0CI@ICEJNBGK@Host?5CR0?5?5?5?5?5?5?5?5?5?5?5?5?5?5?5?5?5?5?5?5?5?5?$DN@ 00000000000089d8     MiniVisorDxe:HostUtils.obj
 0002:00000a00       ??_C@_0CI@NJFOGAHP@Host?5CR3?5?5?5?5?5?5?5?5?5?5?5?5?5?5?5?5?5?5?5?5?5?5?$DN@ 0000000000008a00     MiniVisorDxe:HostUtils.obj
 0002:00000a28       ??_C@_0CI@FJIDJCKG@Host?5CR4?5?5?5?5?5?5?5?5?5?5?5?5?5?5?5?5?5?5?5?5?5?5?$DN@ 0000000000008a28     MiniVisorDxe:HostUtils.obj
 0002:00000a50       ??_C@_0CI@CALNBGIF@Host?5FS?5Base?5?5?5?5?5?5?5?5?5?5?5?5?5?5?5?5?5?5?$DN@ 0000000000008a50     MiniVisorDxe:HostUtils.obj
 0002:00000a78       ??_C@_0CI@OPCDABEN@Host?5GS?5Base?5?5?5?5?5?5?5?5?5?5?5?5?5?5?5?5?5?5?$DN@ 0000000000008a78     MiniVisorDxe:HostUtils.obj
 0002:00000aa0       ??_C@_0CI@DFDKPHPL@Host?5TR?5base?5?5?5?5?5?5?5?5?5?5?5?5?5?5?5?5?5?5?$DN@ 0000000000008aa0     MiniVisorDxe:HostUtils.obj
 0002:00000ac8       ??_C@_0CI@FAOGKFPK@Host?5GDTR?5base?5?5?5?5?5?5?5?5?5?5?5?5?5?5?5?5?$DN@ 0000000000008ac8     MiniVisorDxe:HostUtils.obj
 0002:00000af0       ??_C@_0CI@FGHEHOIM@Host?5IDTR?5base?5?5?5?5?5?5?5?5?5?5?5?5?5?5?5?5?$DN@ 0000000000008af0     MiniVisorDxe:HostUtils.obj
 0002:00000b18       ??_C@_0CI@GFOIBEBO@Host?5IA32_SYSENTER_ESP?5?5?5?5?5?5?5?5?$DN@ 0000000000008b18     MiniVisorDxe:HostUtils.obj
 0002:00000b40       ??_C@_0CI@NCDLBPAF@Host?5IA32_SYSENTER_EIP?5?5?5?5?5?5?5?5?$DN@ 0000000000008b40     MiniVisorDxe:HostUtils.obj
 0002:00000b68       ??_C@_0CI@JPIGNALA@Host?5RSP?5?5?5?5?5?5?5?5?5?5?5?5?5?5?5?5?5?5?5?5?5?5?$DN@ 0000000000008b68     MiniVisorDxe:HostUtils.obj
 0002:00000b90       ??_C@_0CI@MFHOEIO@Host?5RIP?5?5?5?5?5?5?5?5?5?5?5?5?5?5?5?5?5?5?5?5?5?5?$DN@ 0000000000008b90     MiniVisorDxe:HostUtils.obj
 0002:00000bb8       ??_C@_0CJ@MMJHFLNC@Guest?5ES?5Selector?5?5?5?5?5?5?5?5?5?5?5?5?5?5@ 0000000000008bb8     MiniVisorDxe:HostUtils.obj
 0002:00000be8       ??_C@_0P@OGENBDLE@DumpGuestState@ 0000000000008be8     MiniVisorDxe:HostUtils.obj
 0002:00000bf8       ??_C@_0CJ@EACBKB@Guest?5CS?5Selector?5?5?5?5?5?5?5?5?5?5?5?5?5?5@ 0000000000008bf8     MiniVisorDxe:HostUtils.obj
 0002:00000c28       ??_C@_0CJ@EPLKGFOK@Guest?5SS?5Selector?5?5?5?5?5?5?5?5?5?5?5?5?5?5@ 0000000000008c28     MiniVisorDxe:HostUtils.obj
 0002:00000c58       ??_C@_0CJ@DAJEMBK@Guest?5DS?5Selector?5?5?5?5?5?5?5?5?5?5?5?5?5?5@ 0000000000008c58     MiniVisorDxe:HostUtils.obj
 0002:00000c88       ??_C@_0CJ@EHEEGFML@Guest?5FS?5Selector?5?5?5?5?5?5?5?5?5?5?5?5?5?5@ 0000000000008c88     MiniVisorDxe:HostUtils.obj
 0002:00000cb8       ??_C@_0CJ@IINKHCAD@Guest?5GS?5Selector?5?5?5?5?5?5?5?5?5?5?5?5?5?5@ 0000000000008cb8     MiniVisorDxe:HostUtils.obj
 0002:00000ce8       ??_C@_0CJ@HOFIEEGP@Guest?5LDTR?5Selector?5?5?5?5?5?5?5?5?5?5?5?5@ 0000000000008ce8     MiniVisorDxe:HostUtils.obj
 0002:00000d18       ??_C@_0CJ@GIHBFJGH@Guest?5TR?5Selector?5?5?5?5?5?5?5?5?5?5?5?5?5?5@ 0000000000008d18     MiniVisorDxe:HostUtils.obj
 0002:00000d48       ??_C@_0CJ@CGKHHOAM@Guest?5interrupt?5status?5?5?5?5?5?5?5?5?5@ 0000000000008d48     MiniVisorDxe:HostUtils.obj
 0002:00000d78       ??_C@_0CJ@NCAJNOA@PML?5index?5?5?5?5?5?5?5?5?5?5?5?5?5?5?5?5?5?5?5?5?5?5@ 0000000000008d78     MiniVisorDxe:HostUtils.obj
 0002:00000da8       ??_C@_0CJ@OGJDNIPK@VMCS?5link?5pointer?5?5?5?5?5?5?5?5?5?5?5?5?5?5@ 0000000000008da8     MiniVisorDxe:HostUtils.obj
 0002:00000dd8       ??_C@_0CJ@OJOLNKID@Guest?5IA32_DEBUGCTL?5?5?5?5?5?5?5?5?5?5?5?5@ 0000000000008dd8     MiniVisorDxe:HostUtils.obj
 0002:00000e08       ??_C@_0CJ@KHFCMHC@Guest?5IA32_PAT?5?5?5?5?5?5?5?5?5?5?5?5?5?5?5?5?5@ 0000000000008e08     MiniVisorDxe:HostUtils.obj
 0002:00000e38       ??_C@_0CJ@MCNADKEA@Guest?5IA32_EFER?5?5?5?5?5?5?5?5?5?5?5?5?5?5?5?5@ 0000000000008e38     MiniVisorDxe:HostUtils.obj
 0002:00000e68       ??_C@_0CJ@FDJDJEKI@Guest?5IA32_PERF_GLOBAL_CTRL?5?5?5?5@ 0000000000008e68     MiniVisorDxe:HostUtils.obj
 0002:00000e98       ??_C@_0CJ@OKPAKGKC@Guest?5PDPTE0?5?5?5?5?5?5?5?5?5?5?5?5?5?5?5?5?5?5?5@ 0000000000008e98     MiniVisorDxe:HostUtils.obj
 0002:00000ec8       ??_C@_0CJ@NGJAEFKK@Guest?5PDPTE1?5?5?5?5?5?5?5?5?5?5?5?5?5?5?5?5?5?5?5@ 0000000000008ec8     MiniVisorDxe:HostUtils.obj
 0002:00000ef8       ??_C@_0CJ@JCDBGALC@Guest?5PDPTE2?5?5?5?5?5?5?5?5?5?5?5?5?5?5?5?5?5?5?5@ 0000000000008ef8     MiniVisorDxe:HostUtils.obj
 0002:00000f28       ??_C@_0CJ@KOFBIDLK@Guest?5PDPTE3?5?5?5?5?5?5?5?5?5?5?5?5?5?5?5?5?5?5?5@ 0000000000008f28     MiniVisorDxe:HostUtils.obj
 0002:00000f58       ??_C@_0CJ@KGJOOKKH@Guest?5IA32_BNDCFGS?5?5?5?5?5?5?5?5?5?5?5?5?5@ 0000000000008f58     MiniVisorDxe:HostUtils.obj
 0002:00000f88       ??_C@_0CJ@GLAMHKNK@Guest?5IA32_RTIT_CTL?5?5?5?5?5?5?5?5?5?5?5?5@ 0000000000008f88     MiniVisorDxe:HostUtils.obj
 0002:00000fb8       ??_C@_0CJ@LLJBFALI@Guest?5ES?5Limit?5?5?5?5?5?5?5?5?5?5?5?5?5?5?5?5?5@ 0000000000008fb8     MiniVisorDxe:HostUtils.obj
 0002:00000fe8       ??_C@_0CJ@HHEGCKML@Guest?5CS?5Limit?5?5?5?5?5?5?5?5?5?5?5?5?5?5?5?5?5@ 0000000000008fe8     MiniVisorDxe:HostUtils.obj
 0002:00001018       ??_C@_0CJ@DILMGOIA@Guest?5SS?5Limit?5?5?5?5?5?5?5?5?5?5?5?5?5?5?5?5?5@ 0000000000009018     MiniVisorDxe:HostUtils.obj
 0002:00001048       ??_C@_0CJ@HEAPEHHA@Guest?5DS?5Limit?5?5?5?5?5?5?5?5?5?5?5?5?5?5?5?5?5@ 0000000000009048     MiniVisorDxe:HostUtils.obj
 0002:00001078       ??_C@_0CJ@DAECGOKB@Guest?5FS?5Limit?5?5?5?5?5?5?5?5?5?5?5?5?5?5?5?5?5@ 0000000000009078     MiniVisorDxe:HostUtils.obj
 0002:000010a8       ??_C@_0CJ@PPNMHJGJ@Guest?5GS?5Limit?5?5?5?5?5?5?5?5?5?5?5?5?5?5?5?5?5@ 00000000000090a8     MiniVisorDxe:HostUtils.obj
 0002:000010d8       ??_C@_0CJ@JONFEDCO@Guest?5LDTR?5Limit?5?5?5?5?5?5?5?5?5?5?5?5?5?5?5@ 00000000000090d8     MiniVisorDxe:HostUtils.obj
 0002:00001108       ??_C@_0CJ@BPHHFCAN@Guest?5TR?5Limit?5?5?5?5?5?5?5?5?5?5?5?5?5?5?5?5?5@ 0000000000009108     MiniVisorDxe:HostUtils.obj
 0002:00001138       ??_C@_0CJ@DOJLKEDG@Guest?5GDTR?5limit?5?5?5?5?5?5?5?5?5?5?5?5?5?5?5@ 0000000000009138     MiniVisorDxe:HostUtils.obj
 0002:00001168       ??_C@_0CJ@DIAJHPEA@Guest?5IDTR?5limit?5?5?5?5?5?5?5?5?5?5?5?5?5?5?5@ 0000000000009168     MiniVisorDxe:HostUtils.obj
 0002:00001198       ??_C@_0CJ@FKOGLMOG@Guest?5ES?5access?5rights?5?5?5?5?5?5?5?5?5@ 0000000000009198     MiniVisorDxe:HostUtils.obj
 0002:000011c8       ??_C@_0CJ@JGDBMGJF@Guest?5CS?5access?5rights?5?5?5?5?5?5?5?5?5@ 00000000000091c8     MiniVisorDxe:HostUtils.obj
 0002:000011f8       ??_C@_0CJ@NJMLICNO@Guest?5SS?5access?5rights?5?5?5?5?5?5?5?5?5@ 00000000000091f8     MiniVisorDxe:HostUtils.obj
 0002:00001228       ??_C@_0CJ@JFHIKLCO@Guest?5DS?5access?5rights?5?5?5?5?5?5?5?5?5@ 0000000000009228     MiniVisorDxe:HostUtils.obj
 0002:00001258       ??_C@_0CJ@NBDFICPP@Guest?5FS?5access?5rights?5?5?5?5?5?5?5?5?5@ 0000000000009258     MiniVisorDxe:HostUtils.obj
 0002:00001288       ??_C@_0CJ@BOKLJFDH@Guest?5GS?5access?5rights?5?5?5?5?5?5?5?5?5@ 0000000000009288     MiniVisorDxe:HostUtils.obj
 0002:000012b8       ??_C@_0CJ@DGCLKMCH@Guest?5LDTR?5access?5rights?5?5?5?5?5?5?5@ 00000000000092b8     MiniVisorDxe:HostUtils.obj
 0002:000012e8       ??_C@_0CJ@POAALOFD@Guest?5TR?5access?5rights?5?5?5?5?5?5?5?5?5@ 00000000000092e8     MiniVisorDxe:HostUtils.obj
 0002:00001318       ??_C@_0CJ@OGKKHICF@Guest?5interruptibility?5state?5?5?5@ 0000000000009318     MiniVisorDxe:HostUtils.obj
 0002:00001348       ??_C@_0CJ@FLEPLMOG@Guest?5activity?5state?5?5?5?5?5?5?5?5?5?5?5@ 0000000000009348     MiniVisorDxe:HostUtils.obj
 0002:00001378       ??_C@_0CJ@BPNNDHNA@Guest?5SMBASE?5?5?5?5?5?5?5?5?5?5?5?5?5?5?5?5?5?5?5@ 0000000000009378     MiniVisorDxe:HostUtils.obj
 0002:000013a8       ??_C@_0CJ@GOBNAAIN@Guest?5IA32_SYSENTER_CS?5?5?5?5?5?5?5?5?5@ 00000000000093a8     MiniVisorDxe:HostUtils.obj
 0002:000013d8       ??_C@_0CJ@BAOJINDC@VMX?9preemption?5timer?5value?5?5?5?5?5@ 00000000000093d8     MiniVisorDxe:HostUtils.obj
 0002:00001408       ??_C@_0CJ@HEPGBAJ@Guest?5CR0?5?5?5?5?5?5?5?5?5?5?5?5?5?5?5?5?5?5?5?5?5?5@ 0000000000009408     MiniVisorDxe:HostUtils.obj
 0002:00001438       ??_C@_0CJ@FMFINABM@Guest?5CR3?5?5?5?5?5?5?5?5?5?5?5?5?5?5?5?5?5?5?5?5?5?5@ 0000000000009438     MiniVisorDxe:HostUtils.obj
 0002:00001468       ??_C@_0CJ@NMIFCCMF@Guest?5CR4?5?5?5?5?5?5?5?5?5?5?5?5?5?5?5?5?5?5?5?5?5?5@ 0000000000009468     MiniVisorDxe:HostUtils.obj
 0002:00001498       ??_C@_0CJ@COGIJIPP@Guest?5ES?5Base?5?5?5?5?5?5?5?5?5?5?5?5?5?5?5?5?5?5@ 0000000000009498     MiniVisorDxe:HostUtils.obj
 0002:000014c8       ??_C@_0CJ@OCLPOCIM@Guest?5CS?5Base?5?5?5?5?5?5?5?5?5?5?5?5?5?5?5?5?5?5@ 00000000000094c8     MiniVisorDxe:HostUtils.obj
 0002:000014f8       ??_C@_0CJ@KNEFKGMH@Guest?5SS?5Base?5?5?5?5?5?5?5?5?5?5?5?5?5?5?5?5?5?5@ 00000000000094f8     MiniVisorDxe:HostUtils.obj
 0002:00001528       ??_C@_0CJ@OBPGIPDH@Guest?5DS?5Base?5?5?5?5?5?5?5?5?5?5?5?5?5?5?5?5?5?5@ 0000000000009528     MiniVisorDxe:HostUtils.obj
 0002:00001558       ??_C@_0CJ@KFLLKGOG@Guest?5FS?5Base?5?5?5?5?5?5?5?5?5?5?5?5?5?5?5?5?5?5@ 0000000000009558     MiniVisorDxe:HostUtils.obj
 0002:00001588       ??_C@_0CJ@GKCFLBCO@Guest?5GS?5Base?5?5?5?5?5?5?5?5?5?5?5?5?5?5?5?5?5?5@ 0000000000009588     MiniVisorDxe:HostUtils.obj
 0002:000015b8       ??_C@_0CJ@JEHGIKIF@Guest?5LDTR?5base?5?5?5?5?5?5?5?5?5?5?5?5?5?5?5?5@ 00000000000095b8     MiniVisorDxe:HostUtils.obj
 0002:000015e8       ??_C@_0CJ@LADMEHJI@Guest?5TR?5base?5?5?5?5?5?5?5?5?5?5?5?5?5?5?5?5?5?5@ 00000000000095e8     MiniVisorDxe:HostUtils.obj
 0002:00001618       ??_C@_0CJ@NFOABFJJ@Guest?5GDTR?5base?5?5?5?5?5?5?5?5?5?5?5?5?5?5?5?5@ 0000000000009618     MiniVisorDxe:HostUtils.obj
 0002:00001648       ??_C@_0CJ@NDHCMOOP@Guest?5IDTR?5base?5?5?5?5?5?5?5?5?5?5?5?5?5?5?5?5@ 0000000000009648     MiniVisorDxe:HostUtils.obj
 0002:00001678       ??_C@_0CJ@IENLPOGL@Guest?5DR7?5?5?5?5?5?5?5?5?5?5?5?5?5?5?5?5?5?5?5?5?5?5@ 0000000000009678     MiniVisorDxe:HostUtils.obj
 0002:000016a8       ??_C@_0CJ@BKIAGAND@Guest?5RSP?5?5?5?5?5?5?5?5?5?5?5?5?5?5?5?5?5?5?5?5?5?5@ 00000000000096a8     MiniVisorDxe:HostUtils.obj
 0002:000016d8       ??_C@_0CJ@IJFBFEON@Guest?5RIP?5?5?5?5?5?5?5?5?5?5?5?5?5?5?5?5?5?5?5?5?5?5@ 00000000000096d8     MiniVisorDxe:HostUtils.obj
 0002:00001708       ??_C@_0CJ@LECDOHCG@Guest?5RFLAGS?5?5?5?5?5?5?5?5?5?5?5?5?5?5?5?5?5?5?5@ 0000000000009708     MiniVisorDxe:HostUtils.obj
 0002:00001738       ??_C@_0CJ@BDEDLFJN@Guest?5pending?5debug?5exceptions?5@ 0000000000009738     MiniVisorDxe:HostUtils.obj
 0002:00001768       ??_C@_0CJ@OAOOKEHN@Guest?5IA32_SYSENTER_ESP?5?5?5?5?5?5?5?5@ 0000000000009768     MiniVisorDxe:HostUtils.obj
 0002:00001798       ??_C@_0CJ@FHDNKPGG@Guest?5IA32_SYSENTER_EIP?5?5?5?5?5?5?5?5@ 0000000000009798     MiniVisorDxe:HostUtils.obj
 0002:000017c8       ??_C@_0CJ@CEMMBEKI@Virtual?9processor?5identifier?5?5?5@ 00000000000097c8     MiniVisorDxe:HostUtils.obj
 0002:000017f8       ??_C@_0M@EDDFBGDN@DumpControl@ 00000000000097f8     MiniVisorDxe:HostUtils.obj
 0002:00001808       ??_C@_0CP@EHDACODP@Posted?9interrupt?5notification?5v@ 0000000000009808     MiniVisorDxe:HostUtils.obj
 0002:00001838       ??_C@_0CJ@OGGKIAMI@EPTP?5index?5?5?5?5?5?5?5?5?5?5?5?5?5?5?5?5?5?5?5?5?5@ 0000000000009838     MiniVisorDxe:HostUtils.obj
 0002:00001868       ??_C@_0CJ@PJELIED@Address?5of?5I?1O?5bitmap?5A?5?5?5?5?5?5?5?5@ 0000000000009868     MiniVisorDxe:HostUtils.obj
 0002:00001898       ??_C@_0CJ@KMMCDOOK@Address?5of?5I?1O?5bitmap?5B?5?5?5?5?5?5?5?5@ 0000000000009898     MiniVisorDxe:HostUtils.obj
 0002:000018c8       ??_C@_0CJ@PGFHFAEF@Address?5of?5MSR?5bitmaps?5?5?5?5?5?5?5?5?5@ 00000000000098c8     MiniVisorDxe:HostUtils.obj
 0002:000018f8       ??_C@_0CJ@GOMOKKJM@VM?9exit?5MSR?9store?5address?5?5?5?5?5?5@ 00000000000098f8     MiniVisorDxe:HostUtils.obj
 0002:00001928       ??_C@_0CJ@LJEAMAEM@VM?9exit?5MSR?9load?5address?5?5?5?5?5?5?5@ 0000000000009928     MiniVisorDxe:HostUtils.obj
 0002:00001958       ??_C@_0CJ@IBKDEEPJ@VM?9entry?5MSR?9load?5address?5?5?5?5?5?5@ 0000000000009958     MiniVisorDxe:HostUtils.obj
 0002:00001988       ??_C@_0CJ@OAEEJCCP@Executive?9VMCS?5pointer?5?5?5?5?5?5?5?5?5@ 0000000000009988     MiniVisorDxe:HostUtils.obj
 0002:000019b8       ??_C@_0CJ@IBPEIAPN@PML?5address?5?5?5?5?5?5?5?5?5?5?5?5?5?5?5?5?5?5?5?5@ 00000000000099b8     MiniVisorDxe:HostUtils.obj
 0002:000019e8       ??_C@_0CJ@NEFANEHJ@TSC?5offset?5?5?5?5?5?5?5?5?5?5?5?5?5?5?5?5?5?5?5?5?5@ 00000000000099e8     MiniVisorDxe:HostUtils.obj
 0002:00001a18       ??_C@_0CJ@GINONDGO@Virtual?9APIC?5address?5?5?5?5?5?5?5?5?5?5?5@ 0000000000009a18     MiniVisorDxe:HostUtils.obj
 0002:00001a48       ??_C@_0CJ@DFMCHBAM@APIC?9access?5address?5?5?5?5?5?5?5?5?5?5?5?5@ 0000000000009a48     MiniVisorDxe:HostUtils.obj
 0002:00001a78       ??_C@_0CO@BMOJIBPC@Posted?9interrupt?5descriptor?5add@ 0000000000009a78     MiniVisorDxe:HostUtils.obj
 0002:00001aa8       ??_C@_0CJ@FMBFINDD@VM?9function?5controls?5?5?5?5?5?5?5?5?5?5?5@ 0000000000009aa8     MiniVisorDxe:HostUtils.obj
 0002:00001ad8       ??_C@_0CJ@HIELHJJH@EPT?5pointer?5?5?5?5?5?5?5?5?5?5?5?5?5?5?5?5?5?5?5?5@ 0000000000009ad8     MiniVisorDxe:HostUtils.obj
 0002:00001b08       ??_C@_0CJ@BGCGHIOL@EOI?9exit?5bitmap?50?5?5?5?5?5?5?5?5?5?5?5?5?5?5@ 0000000000009b08     MiniVisorDxe:HostUtils.obj
 0002:00001b38       ??_C@_0CJ@LDKNOIOF@EOI?9exit?5bitmap?51?5?5?5?5?5?5?5?5?5?5?5?5?5?5@ 0000000000009b38     MiniVisorDxe:HostUtils.obj
 0002:00001b68       ??_C@_0CJ@IGEAFOLG@EOI?9exit?5bitmap?52?5?5?5?5?5?5?5?5?5?5?5?5?5?5@ 0000000000009b68     MiniVisorDxe:HostUtils.obj
 0002:00001b98       ??_C@_0CJ@CDMLMOLI@EOI?9exit?5bitmap?53?5?5?5?5?5?5?5?5?5?5?5?5?5?5@ 0000000000009b98     MiniVisorDxe:HostUtils.obj
 0002:00001bc8       ??_C@_0CJ@JPGBMLHG@EPTP?9list?5address?5?5?5?5?5?5?5?5?5?5?5?5?5?5@ 0000000000009bc8     MiniVisorDxe:HostUtils.obj
 0002:00001bf8       ??_C@_0CJ@IIAHJHBJ@VMREAD?9bitmap?5address?5?5?5?5?5?5?5?5?5?5@ 0000000000009bf8     MiniVisorDxe:HostUtils.obj
 0002:00001c28       ??_C@_0CJ@CDCPGLF@VMWRITE?9bitmap?5address?5?5?5?5?5?5?5?5?5@ 0000000000009c28     MiniVisorDxe:HostUtils.obj
 0002:00001c58       ??_C@_0DH@KEFFEBDL@Virtualization?9exception?5inform@ 0000000000009c58     MiniVisorDxe:HostUtils.obj
 0002:00001c90       ??_C@_0CJ@NEMAPPCH@XSS?9exiting?5bitmap?5?5?5?5?5?5?5?5?5?5?5?5?5@ 0000000000009c90     MiniVisorDxe:HostUtils.obj
 0002:00001cc0       ??_C@_0CJ@EGLHPNIA@ENCLS?9exiting?5bitmap?5?5?5?5?5?5?5?5?5?5?5@ 0000000000009cc0     MiniVisorDxe:HostUtils.obj
 0002:00001cf0       ??_C@_0CJ@FELODNAL@TSC?5multiplier?5?5?5?5?5?5?5?5?5?5?5?5?5?5?5?5?5@ 0000000000009cf0     MiniVisorDxe:HostUtils.obj
 0002:00001d20       ??_C@_0CK@MCPNKADP@Pin?9based?5VM?9execution?5controls@ 0000000000009d20     MiniVisorDxe:HostUtils.obj
 0002:00001d50       ??_C@_0DI@NEEKJLNN@Primary?5processor?9based?5VM?9exec@ 0000000000009d50     MiniVisorDxe:HostUtils.obj
 0002:00001d88       ??_C@_0CJ@FHCEHIKB@Exception?5bitmap?5?5?5?5?5?5?5?5?5?5?5?5?5?5?5@ 0000000000009d88     MiniVisorDxe:HostUtils.obj
 0002:00001db8       ??_C@_0CJ@OMLDBHNP@Page?9fault?5error?9code?5mask?5?5?5?5?5@ 0000000000009db8     MiniVisorDxe:HostUtils.obj
 0002:00001de8       ??_C@_0CJ@LKEAEDCB@Page?9fault?5error?9code?5match?5?5?5?5@ 0000000000009de8     MiniVisorDxe:HostUtils.obj
 0002:00001e18       ??_C@_0CJ@HIJBKDDK@CR3?9target?5count?5?5?5?5?5?5?5?5?5?5?5?5?5?5?5@ 0000000000009e18     MiniVisorDxe:HostUtils.obj
 0002:00001e48       ??_C@_0CJ@IDFNPLMA@VM?9exit?5controls?5?5?5?5?5?5?5?5?5?5?5?5?5?5?5@ 0000000000009e48     MiniVisorDxe:HostUtils.obj
 0002:00001e78       ??_C@_0CJ@EHCIBIMM@VM?9exit?5MSR?9store?5count?5?5?5?5?5?5?5?5@ 0000000000009e78     MiniVisorDxe:HostUtils.obj
 0002:00001ea8       ??_C@_0CJ@NCACHHAK@VM?9exit?5MSR?9load?5count?5?5?5?5?5?5?5?5?5@ 0000000000009ea8     MiniVisorDxe:HostUtils.obj
 0002:00001ed8       ??_C@_0CJ@CJMJAGJI@VM?9entry?5controls?5?5?5?5?5?5?5?5?5?5?5?5?5?5@ 0000000000009ed8     MiniVisorDxe:HostUtils.obj
 0002:00001f08       ??_C@_0CJ@KIEFPGKJ@VM?9entry?5MSR?9load?5count?5?5?5?5?5?5?5?5@ 0000000000009f08     MiniVisorDxe:HostUtils.obj
 0002:00001f38       ??_C@_0DC@LADGBEKN@VM?9entry?5interruption?9informati@ 0000000000009f38     MiniVisorDxe:HostUtils.obj
 0002:00001f70       ??_C@_0CJ@KHDBLJOB@VM?9entry?5exception?5error?5code?5?5@ 0000000000009f70     MiniVisorDxe:HostUtils.obj
 0002:00001fa0       ??_C@_0CJ@CODCPBLP@VM?9entry?5instruction?5length?5?5?5?5@ 0000000000009fa0     MiniVisorDxe:HostUtils.obj
 0002:00001fd0       ??_C@_0CJ@KHMLFNNN@TPR?5threshold?5?5?5?5?5?5?5?5?5?5?5?5?5?5?5?5?5?5@ 0000000000009fd0     MiniVisorDxe:HostUtils.obj
 0002:00002000       ??_C@_0DK@BMEAIIBA@Secondary?5processor?9based?5VM?9ex@ 000000000000a000     MiniVisorDxe:HostUtils.obj
 0002:00002040       ??_C@_0CJ@OJCOJMJH@PLE_Gap?5?5?5?5?5?5?5?5?5?5?5?5?5?5?5?5?5?5?5?5?5?5?5?5@ 000000000000a040     MiniVisorDxe:HostUtils.obj
 0002:00002070       ??_C@_0CJ@FLFEHKPP@PLE_Window?5?5?5?5?5?5?5?5?5?5?5?5?5?5?5?5?5?5?5?5?5@ 000000000000a070     MiniVisorDxe:HostUtils.obj
 0002:000020a0       ??_C@_0CJ@BKIHJNPD@CR0?5guest?1host?5mask?5?5?5?5?5?5?5?5?5?5?5?5@ 000000000000a0a0     MiniVisorDxe:HostUtils.obj
 0002:000020d0       ??_C@_0CJ@PLNCLFBG@CR4?5guest?1host?5mask?5?5?5?5?5?5?5?5?5?5?5?5@ 000000000000a0d0     MiniVisorDxe:HostUtils.obj
 0002:00002100       ??_C@_0CJ@MDMCDAMM@CR0?5read?5shadow?5?5?5?5?5?5?5?5?5?5?5?5?5?5?5?5@ 000000000000a100     MiniVisorDxe:HostUtils.obj
 0002:00002130       ??_C@_0CJ@CCJHBICJ@CR4?5read?5shadow?5?5?5?5?5?5?5?5?5?5?5?5?5?5?5?5@ 000000000000a130     MiniVisorDxe:HostUtils.obj
 0002:00002160       ??_C@_0CJ@PACAPDMA@CR3?9target?5value?50?5?5?5?5?5?5?5?5?5?5?5?5?5@ 000000000000a160     MiniVisorDxe:HostUtils.obj
 0002:00002190       ??_C@_0CJ@HBAFJGOH@CR3?9target?5value?51?5?5?5?5?5?5?5?5?5?5?5?5?5@ 000000000000a190     MiniVisorDxe:HostUtils.obj
 0002:000021c0       ??_C@_0CJ@CJBLDPMP@CR3?9target?5value?52?5?5?5?5?5?5?5?5?5?5?5?5?5@ 000000000000a1c0     MiniVisorDxe:HostUtils.obj
 0002:000021f0       ??_C@_0CJ@KIDOFKOI@CR3?9target?5value?53?5?5?5?5?5?5?5?5?5?5?5?5?5@ 000000000000a1f0     MiniVisorDxe:HostUtils.obj
 0002:00002220       ??_C@_0CG@MDALNKLI@BuildEptEntriesFor512Gb?5failed?5@ 000000000000a220     MiniVisorDxe:ExtendedPageTables.obj
 0002:00002248       ??_C@_0BN@GJDBPOGB@InitializeExtendedPageTables@ 000000000000a248     MiniVisorDxe:ExtendedPageTables.obj
 0002:00002268       ??_C@_0BC@BPPKBOJK@Type?$DN?$CFu?5?$CIDefault?$CJ@ 000000000000a268     MiniVisorDxe:MemoryType.obj
 0002:00002280       ??_C@_0BM@EMBJDOMM@InitializeMemoryTypeMapping@ 000000000000a280     MiniVisorDxe:MemoryType.obj
 0002:000022a0       ??_C@_0CD@OOFKKMCD@Type?$DN?$CFu?5Fixed?$DN?$CFu?5?$CF016llx?5?9?5?$CF016@ 000000000000a2a0     MiniVisorDxe:MemoryType.obj
 0002:000023d8       ??_C@_0N@CNIBFINJ@Microsoft?5Hv@ 000000000000a3d8     MiniVisorDxe:HostMain.obj
 0002:000023e8       ??_C@_0BG@JCHKNMPL@IP?3?$CF016llx?5PA?3?$CF016llx@ 000000000000a3e8     MiniVisorDxe:HostMain.obj
 0002:00002400       ??_C@_0BD@EDOGOFFB@HandleEptViolation@ 000000000000a400     MiniVisorDxe:HostMain.obj
 0002:00002418       ??_C@_0BD@NMICPCDN@HandleEptMisconfig@ 000000000000a418     MiniVisorDxe:HostMain.obj
 0002:00002430       ??_C@_0BO@LDLHLDCC@EPT_PML4?3?$CF016llx?5EPTP?3?$CF016llx@ 000000000000a430     MiniVisorDxe:HostMain.obj
 0002:00002450       ??_C@_0BN@MIBPIJOF@Indexes?3?5?$CFllu?5?$CFllu?5?$CFllu?5?$CFllu@ 000000000000a450     MiniVisorDxe:HostMain.obj
 0002:00002470       ??_C@_0BO@ELEBKIBF@Found?5ntoskrnl?4exe?5at?5?$CF016llx@ 000000000000a470     MiniVisorDxe:HostMain.obj
 0002:00002490       ??_C@_0BF@GBJLOFFD@HandleExceptionOrNmi@ 000000000000a490     MiniVisorDxe:HostMain.obj
 0002:000024a8       ??_C@_0CH@CLHBBAC@KeInitAmd64SpecificState?5trigge@ 000000000000a4a8     MiniVisorDxe:HostMain.obj
 0002:000024d0       ??_C@_0CJ@GPHKECLG@Skipping?5main?5PatchGuard?5initia@ 000000000000a4d0     MiniVisorDxe:HostMain.obj
 0002:00002500       ??_C@_0BN@OPOFOLFL@VM?9exit?5reason?5?$CIFull?$CJ?5?$DN?5?$CF08x@ 000000000000a500     MiniVisorDxe:HostMain.obj
 0002:00002520       ??_C@_0N@JKKCMNJJ@HandleVmExit@ 000000000000a520     MiniVisorDxe:HostMain.obj
 0002:00002530       ??_C@_0CG@JJPJJMAB@Exception?5or?5interrupt?50x?$CFllx?$CI0@ 000000000000a530     MiniVisorDxe:HostMain.obj
 0002:00002558       ??_C@_0BE@POFDMDBE@HandleHostException@ 000000000000a558     MiniVisorDxe:HostMain.obj
 0002:00002570       ??_C@_0DA@EHMKMIDH@RIP?5?5?9?5?$CF016llx?0?5CS?5?5?9?5?$CF016llx?0?5@ 000000000000a570     MiniVisorDxe:HostMain.obj
 0002:000025a0       ??_C@_0CN@LNMNIBCJ@RAX?5?5?9?5?$CF016llx?0?5RCX?5?9?5?$CF016llx?0?5@ 000000000000a5a0     MiniVisorDxe:HostMain.obj
 0002:000025d0       ??_C@_0CN@LMIBGHPG@RBX?5?5?9?5?$CF016llx?0?5RSP?5?9?5?$CF016llx?0?5@ 000000000000a5d0     MiniVisorDxe:HostMain.obj
 0002:00002600       ??_C@_0BO@BMIABMBJ@RSI?5?5?9?5?$CF016llx?0?5RDI?5?9?5?$CF016llx@ 000000000000a600     MiniVisorDxe:HostMain.obj
 0002:00002620       ??_C@_0CN@ONPHHFII@R8?5?5?5?9?5?$CF016llx?0?5R9?5?5?9?5?$CF016llx?0?5@ 000000000000a620     MiniVisorDxe:HostMain.obj
 0002:00002650       ??_C@_0CN@FJLIKDLJ@R11?5?5?9?5?$CF016llx?0?5R12?5?9?5?$CF016llx?0?5@ 000000000000a650     MiniVisorDxe:HostMain.obj
 0002:00002680       ??_C@_0BO@LGBHFLJO@R14?5?5?9?5?$CF016llx?0?5R15?5?9?5?$CF016llx@ 000000000000a680     MiniVisorDxe:HostMain.obj
 0002:000026a0       ??_C@_0P@NLHMDNOL@CR2?5?5?9?5?$CF016llx@ 000000000000a6a0     MiniVisorDxe:HostMain.obj
 0002:000026b0       ??_C@_0CJ@JHEJJCAN@VM?9exit?5reason?5?$CIfull?$CJ?5?$DN?5?$CF08x?0?5E@ 000000000000a6b0     MiniVisorDxe:HostMain.obj
 0002:000026e0       ??_C@_0BE@KNCIMICE@HandleVmExitFailure@ 000000000000a6e0     MiniVisorDxe:HostMain.obj
 0002:00002708       ??_C@_0O@MLOLIMFM@?$DMnull?5string?$DO@ 000000000000a708     BasePrintLib:PrintLibInternal.obj
 0002:00002718       ??_C@_0M@BJJDNPHK@?$DMnull?5guid?$DO@ 000000000000a718     BasePrintLib:PrintLibInternal.obj
 0002:00002728       ??_C@_0DB@PMLHLBMO@?$CF08x?9?$CF04x?9?$CF04x?9?$CF02x?$CF02x?9?$CF02x?$CF02@ 000000000000a728     BasePrintLib:PrintLibInternal.obj
 0002:00002760       ??_C@_0M@LHGBCIKM@?$DMnull?5time?$DO@ 000000000000a760     BasePrintLib:PrintLibInternal.obj
 0002:00002770       ??_C@_0BK@FCPKCIDD@?$CF02d?1?$CF02d?1?$CF04d?5?5?$CF02d?3?$CF02d@ 000000000000a770     BasePrintLib:PrintLibInternal.obj
 0002:0000278c       ??_C@_04JIMNDDED@?$CF08X@  000000000000a78c     BasePrintLib:PrintLibInternal.obj
 0002:00002794       ??_C@_02PCIJFNDE@?$AN?6@   000000000000a794     BasePrintLib:PrintLibInternal.obj
 0002:00002798       ??_C@_01LIIJDEN@?$AN@      000000000000a798     BasePrintLib:PrintLibInternal.obj
 0002:000027a0       mWarningString             000000000000a7a0     BasePrintLib:PrintLibInternal.obj
 0002:00002840       mErrorString               000000000000a840     BasePrintLib:PrintLibInternal.obj
 0002:00002b00       mHexStr                    000000000000ab00     BasePrintLib:PrintLibInternal.obj
 0002:00002b10       __xmm@00000003000000020000000100000000 000000000000ab10     MiniVisorDxe:MemoryAccess.obj
 0002:00002b20       __xmm@0000fffffffff0000000fffffffff000 000000000000ab20     MiniVisorDxe:MemoryAccess.obj
 0002:00002b30       __xmm@202020726f736956696e694d40000001 000000000000ab30     MiniVisorDxe:HostMain.obj
 0002:00002b40       __xmm@ffff000000000fffffff000000000fff 000000000000ab40     MiniVisorDxe:MemoryAccess.obj
 0002:00003000       gST                        000000000000b000     UefiBootServicesTableLib:UefiBootServicesTableLib.obj
 0002:00003008       gBS                        000000000000b008     UefiBootServicesTableLib:UefiBootServicesTableLib.obj
 0002:00003010       gImageHandle               000000000000b010     UefiBootServicesTableLib:UefiBootServicesTableLib.obj
 0002:00003018       gRT                        000000000000b018     UefiRuntimeServicesTableLib:UefiRuntimeServicesTableLib.obj
 0002:00003020       mDevicePathLibDevicePathToText 000000000000b020     UefiDevicePathLibDevicePathProtocol:UefiDevicePathLib.obj
 0002:00003028       mDevicePathLibDevicePathUtilities 000000000000b028     UefiDevicePathLibDevicePathProtocol:UefiDevicePathLib.obj
 0002:0020a080       __volatile_metadata        0000000000212080     <linker-defined>

 entry point at        0001:000001d8

 Static symbols

 0001:0000003a       InternalMemCopyMem.0       000000000000103a     BaseMemoryLibOptDxe:CopyMem.obj
 0001:00000052       InternalMemCopyMem.1       0000000000001052     BaseMemoryLibOptDxe:CopyMem.obj
 0001:00000065       InternalMemCopyMem.2       0000000000001065     BaseMemoryLibOptDxe:CopyMem.obj
 0001:00000082       @CopyBackward              0000000000001082     BaseMemoryLibOptDxe:CopyMem.obj
 0001:0000008b       @CopyBytes                 000000000000108b     BaseMemoryLibOptDxe:CopyMem.obj
 0001:0000014f       AsmCpuid.0                 000000000000114f     BaseLib:CpuId.obj
 0001:00000154       AsmCpuid.1                 0000000000001154     BaseLib:CpuId.obj
 0001:0000015b       AsmCpuid.2                 000000000000115b     BaseLib:CpuId.obj
 0001:00000164       AsmCpuid.3                 0000000000001164     BaseLib:CpuId.obj
 0001:00000284       PrintLoadedImageInformation 0000000000001284 f   MiniVisorDxe:EfiPlatform.obj
 0001:00000570       ExitBootServicesHandler    0000000000001570 f   MiniVisorDxe:EfiLogger.obj
 0001:000005ec       AdjustControlValue         00000000000015ec f   MiniVisorDxe:MiniVisor.obj
 0001:00000668       DisableHypervisor          0000000000001668 f   MiniVisorDxe:MiniVisor.obj
 0001:00000700       SetupVmcs                  0000000000001700 f   MiniVisorDxe:MiniVisor.obj
 0001:000011fc       EnableHypervisor           00000000000021fc f   MiniVisorDxe:MiniVisor.obj
 0001:000013d0       EnableHypervisorOnAllProcessors 00000000000023d0 f   MiniVisorDxe:MiniVisor.obj
 0001:00001dcc       Split2MbPage               0000000000002dcc f   MiniVisorDxe:MemoryAccess.obj
 0001:00001ec4       GetPteForVa                0000000000002ec4 f   MiniVisorDxe:MemoryAccess.obj
 0001:00001f60       ReadOrWriteOnPhysicalAddress 0000000000002f60 f   MiniVisorDxe:MemoryAccess.obj
 0001:00002208       ReadOrWriteGuestVirtualAddress 0000000000003208 f   MiniVisorDxe:MemoryAccess.obj
 0001:0000355c       CleanupTables              000000000000455c f   MiniVisorDxe:ExtendedPageTables.obj
 0001:000035dc       BuildEptEntriesFor512Gb    00000000000045dc f   MiniVisorDxe:ExtendedPageTables.obj
 0001:00003b88       HandleMsrAccess            0000000000004b88 f   MiniVisorDxe:HostMain.obj
 0001:00003bf4       HandleCpuid                0000000000004bf4 f   MiniVisorDxe:HostMain.obj
 0001:00003ca0       HandleVmCall               0000000000004ca0 f   MiniVisorDxe:HostMain.obj
 0001:00003d48       HandleCrAccess             0000000000004d48 f   MiniVisorDxe:HostMain.obj
 0001:00004004       HandleEptMisconfig         0000000000005004 f   MiniVisorDxe:HostMain.obj
 0001:000040e0       HandleExceptionOrNmi       00000000000050e0 f   MiniVisorDxe:HostMain.obj
 0001:00004248       HandleInitSignal           0000000000005248 f   MiniVisorDxe:HostMain.obj
 0001:00005b90       $$000000                   0000000000006b90     MiniVisorDxe:Asm.obj
 0001:00005cd0       $$000000                   0000000000006cd0     MiniVisorDxe:EfiAsm.obj
 0002:00000250       k_StatusMapping            0000000000008250     MiniVisorDxe:EfiPlatform.obj
 0002:000022d0       ?rangeInformation@?1??InitializeMemoryTypeMapping@@9@9 000000000000a2d0     MiniVisorDxe:MemoryType.obj
 0002:000026f8       k_VmcallHandlers           000000000000a6f8     MiniVisorDxe:HostMain.obj
 0002:00004000       g_MpServices               000000000000c000     MiniVisorDxe:EfiPlatform.obj
 0002:00004008       g_EfiExitBootServicesEvent 000000000000c008     MiniVisorDxe:EfiLogger.obj
 0002:00004010       g_AtRuntime                000000000000c010     MiniVisorDxe:EfiLogger.obj
 0002:00004011       ?isKeInitAmd64SpecificStateCalled@?1??HandleExceptionOrNmi@@9@9 000000000000c011     MiniVisorDxe:HostMain.obj
 0002:00004018       g_HostIdtr                 000000000000c018     MiniVisorDxe:EfiHostInitialization.obj
 0002:00004028       g_HostCr3                  000000000000c028     MiniVisorDxe:EfiHostInitialization.obj
 0002:00004030       g_HostIdt                  000000000000c030     MiniVisorDxe:EfiHostInitialization.obj
 0002:00006000       g_HostPagingStructures     000000000000e000     MiniVisorDxe:EfiHostInitialization.obj
 0002:00208000       g_MemoryManager            0000000000210000     MiniVisorDxe:MemoryManager.obj
 0002:00208050       g_MtrrDatabase             0000000000210050     MiniVisorDxe:MemoryType.obj
 0004:00000000       $unwind$_DriverUnloadHandler 0000000000214000     UefiDriverEntryPoint:DriverEntryPoint.obj
 0004:00000000       $unwind$InternalAllocatePages 0000000000214000     UefiMemoryAllocationLib:MemoryAllocationLib.obj
 0004:00000000       $unwind$VmxRead            0000000000214000     MiniVisorDxe:HostUtils.obj
 0004:00000000       $unwind$VmxWrite           0000000000214000     MiniVisorDxe:HostUtils.obj
 0004:00000000       $unwind$GetSegmentAccessRight 0000000000214000     MiniVisorDxe:Ia32Utils.obj
 0004:00000000       $unwind$ExitBootServicesHandler 0000000000214000     MiniVisorDxe:EfiLogger.obj
 0004:00000000       $unwind$GetActiveProcessorCount 0000000000214000     MiniVisorDxe:EfiPlatform.obj
 0004:00000000       $unwind$GetCurrentProcessorNumber 0000000000214000     MiniVisorDxe:EfiPlatform.obj
 0004:00000008       $unwind$_ModuleEntryPoint  0000000000214008     UefiDriverEntryPoint:DriverEntryPoint.obj
 0004:00000008       $unwind$HandleVmCall       0000000000214008     MiniVisorDxe:HostMain.obj
 0004:00000008       $unwind$AdvanceGuestInstructionPointer 0000000000214008     MiniVisorDxe:HostUtils.obj
 0004:00000008       $unwind$InjectInterruption 0000000000214008     MiniVisorDxe:HostUtils.obj
 0004:00000008       $unwind$SetNmiWindowExiting 0000000000214008     MiniVisorDxe:HostUtils.obj
 0004:00000008       $unwind$ReadOrWriteOnPhysicalAddress 0000000000214008     MiniVisorDxe:MemoryAccess.obj
 0004:00000008       $unwind$MmAllocatePages    0000000000214008     MiniVisorDxe:MemoryManager.obj
 0004:00000010       $unwind$PrintLoadedImageInformation 0000000000214010     MiniVisorDxe:EfiPlatform.obj
 0004:0000001c       $unwind$AdjustGuestCr0     000000000021401c     MiniVisorDxe:HostUtils.obj
 0004:0000001c       $unwind$DumpControl        000000000021401c     MiniVisorDxe:HostUtils.obj
 0004:0000001c       $unwind$DumpGuestState     000000000021401c     MiniVisorDxe:HostUtils.obj
 0004:0000001c       $unwind$DumpHostState      000000000021401c     MiniVisorDxe:HostUtils.obj
 0004:0000001c       $unwind$Split2MbPage       000000000021401c     MiniVisorDxe:MemoryAccess.obj
 0004:0000001c       $unwind$MmCleanupMemoryManager 000000000021401c     MiniVisorDxe:MemoryManager.obj
 0004:0000001c       $unwind$DisableHypervisor  000000000021401c     MiniVisorDxe:MiniVisor.obj
 0004:0000001c       $unwind$AllocateSystemMemory 000000000021401c     MiniVisorDxe:EfiPlatform.obj
 0004:00000028       $unwind$RunOnAllProcessors 0000000000214028     MiniVisorDxe:EfiPlatform.obj
 0004:00000034       $unwind$AcquireSystemSpinLock 0000000000214034     MiniVisorDxe:EfiPlatform.obj
 0004:0000003c       $unwind$LogMessage         000000000021403c     MiniVisorDxe:EfiLogger.obj
 0004:00000044       $unwind$AdjustControlValue 0000000000214044     MiniVisorDxe:MiniVisor.obj
 0004:00000054       $unwind$SetupVmcs          0000000000214054     MiniVisorDxe:MiniVisor.obj
 0004:00000070       $unwind$EnableHypervisor   0000000000214070     MiniVisorDxe:MiniVisor.obj
 0004:00000088       $unwind$EnableHypervisorOnAllProcessors 0000000000214088     MiniVisorDxe:MiniVisor.obj
 0004:0000009c       $unwind$InitializeMiniVisor 000000000021409c     MiniVisorDxe:MiniVisor.obj
 0004:000000a8       $unwind$InitializeHostEnvironment 00000000002140a8     MiniVisorDxe:EfiHostInitialization.obj
 0004:000000c4       $unwind$InitializeGdt      00000000002140c4     MiniVisorDxe:EfiHostInitialization.obj
 0004:000000d8       $unwind$IsHypervisorPresent 00000000002140d8     MiniVisorDxe:Ia32Utils.obj
 0004:000000e8       $unwind$MmInitializeMemoryManager 00000000002140e8     MiniVisorDxe:MemoryManager.obj
 0004:00000100       $unwind$MmFreePages        0000000000214100     MiniVisorDxe:MemoryManager.obj
 0004:0000010c       $unwind$GetPhysicalAddressForGuest 000000000021410c     MiniVisorDxe:MemoryAccess.obj
 0004:00000124       $unwind$ReadOrWriteGuestVirtualAddress 0000000000214124     MiniVisorDxe:MemoryAccess.obj
 0004:00000140       $unwind$CleanupTables      0000000000214140     MiniVisorDxe:ExtendedPageTables.obj
 0004:00000158       $unwind$BuildEptEntriesFor512Gb 0000000000214158     MiniVisorDxe:ExtendedPageTables.obj
 0004:00000170       $unwind$InvalidateVpidDerivedCache 0000000000214170     MiniVisorDxe:ExtendedPageTables.obj
 0004:00000178       $unwind$InitializeMemoryTypeMapping 0000000000214178     MiniVisorDxe:MemoryType.obj
 0004:00000190       $unwind$HandleCpuid        0000000000214190     MiniVisorDxe:HostMain.obj
 0004:0000019c       $unwind$HandleCrAccess     000000000021419c     MiniVisorDxe:HostMain.obj
 0004:000001b0       $unwind$HandleEptMisconfig 00000000002141b0     MiniVisorDxe:HostMain.obj
 0004:000001bc       $unwind$HandleExceptionOrNmi 00000000002141bc     MiniVisorDxe:HostMain.obj
 0004:000001cc       $unwind$HandleInitSignal   00000000002141cc     MiniVisorDxe:HostMain.obj
 0004:000001e0       $unwind$HandleVmExit       00000000002141e0     MiniVisorDxe:HostMain.obj
 0004:000001f4       $unwind$HandleHostException 00000000002141f4     MiniVisorDxe:HostMain.obj
 0004:00000204       $unwind$HandleVmExitFailure 0000000000214204     MiniVisorDxe:HostMain.obj
 0004:00000210       $unwind$HandleVmcallUninstall 0000000000214210     MiniVisorDxe:HostVmcall.obj
 0004:00000218       $unwind$BasePrintLibSPrintMarker 0000000000214218     BasePrintLib:PrintLibInternal.obj
 0004:00000230       $unwind$BasePrintLibSPrint 0000000000214230     BasePrintLib:PrintLibInternal.obj
 0004:00000238       $unwind$UefiDevicePathLibLocateProtocol 0000000000214238     UefiDevicePathLibDevicePathProtocol:UefiDevicePathLib.obj
 0004:00000240       $xdatasym                  0000000000214240     MiniVisorDxe:Asm.obj
